; Function Attrs: mustprogress nounwind uwtable
define dso_local void @_ZN5clang27AmbiguousConversionSequence8copyFromERKS0_(ptr noundef nonnull align 8 dereferenceable(96) %0, ptr noundef nonnull align 8 dereferenceable(96) %1) local_unnamed_addr #4 align 2 {
  %3 = load ptr, ptr %1, align 8
  store ptr %3, ptr %0, align 8
  %4 = getelementptr inbounds nuw i8, ptr %1, i64 8
  %5 = load ptr, ptr %4, align 8
  %6 = getelementptr inbounds nuw i8, ptr %0, i64 8
  store ptr %5, ptr %6, align 8
  %7 = getelementptr inbounds nuw i8, ptr %0, i64 16
  %8 = getelementptr inbounds nuw i8, ptr %1, i64 16
  %9 = getelementptr inbounds i8, ptr %0, i64 32
  tail call void @_ZN4llvm15SmallVectorBaseIjEC2EPvm(ptr noundef nonnull align 8 dereferenceable(16) %7, ptr noundef nonnull %9, i64 noundef 4) #26
  %10 = tail call noundef zeroext i1 @_ZNK4llvm15SmallVectorBaseIjE5emptyEv(ptr noundef nonnull align 8 dereferenceable(16) %8) #26
  br i1 %10, label %_ZN4llvm11SmallVectorISt4pairIPN5clang9NamedDeclEPNS2_12FunctionDeclEELj4EEC2ERKS8_.exit, label %11

11:                                               ; preds = %2
  %12 = tail call noundef nonnull align 8 dereferenceable(16) ptr @_ZN4llvm15SmallVectorImplISt4pairIPN5clang9NamedDeclEPNS2_12FunctionDeclEEEaSERKS8_(ptr noundef nonnull align 8 dereferenceable(16) %7, ptr noundef nonnull align 8 dereferenceable(16) %8)
  br label %_ZN4llvm11SmallVectorISt4pairIPN5clang9NamedDeclEPNS2_12FunctionDeclEELj4EEC2ERKS8_.exit

_ZN4llvm11SmallVectorISt4pairIPN5clang9NamedDeclEPNS2_12FunctionDeclEELj4EEC2ERKS8_.exit: ; preds = %2, %11
  ret void
}